target datalayout = "e-m:e-p270:32:32-p271:32:32-p272:64:64-i64:64-i128:128-f80:128-n8:16:32:64-S128"
target triple = "x86_64-pc-linux-gnu"

%struct.ProcSignalHeader = type { %struct.pg_atomic_uint64, [0 x %struct.ProcSignalSlot] }
%struct.pg_atomic_uint64 = type { i64 }
%struct.ProcSignalSlot = type { %struct.pg_atomic_uint32, i8, i32, [14 x i32], i8, %struct.pg_atomic_uint64, %struct.pg_atomic_uint32, %struct.ConditionVariable }
%struct.pg_atomic_uint32 = type { i32 }
%struct.ConditionVariable = type { i8, %struct.proclist_head }
%struct.proclist_head = type { i32, i32 }

@MaxBackends = external global i32, align 4
@.str = private unnamed_addr constant [11 x i8] c"ProcSignal\00", align 1
@ProcSignal = internal global ptr null, align 8

; Function Attrs: inlinehint nounwind uwtable
define internal void @pg_atomic_init_u32_impl(ptr noundef %0, i32 noundef %1) #3 {
  %3 = alloca ptr, align 8
  %4 = alloca i32, align 4
  store ptr %0, ptr %3, align 8
  store i32 %1, ptr %4, align 4
  %5 = load i32, ptr %4, align 4
  %6 = load ptr, ptr %3, align 8
  %7 = getelementptr inbounds nuw %struct.pg_atomic_uint32, ptr %6, i32 0, i32 0
  store volatile i32 %5, ptr %7, align 4
  ret void
}

; Function Attrs: inlinehint nounwind uwtable
define internal void @pg_atomic_init_u64_impl(ptr noundef %0, i64 noundef %1) #3 {
  %3 = alloca ptr, align 8
  %4 = alloca i64, align 8
  store ptr %0, ptr %3, align 8
  store i64 %1, ptr %4, align 8
  %5 = load i64, ptr %4, align 8
  %6 = load ptr, ptr %3, align 8
  %7 = getelementptr inbounds nuw %struct.pg_atomic_uint64, ptr %6, i32 0, i32 0
  store volatile i64 %5, ptr %7, align 8
  ret void
}

; Function Attrs: inlinehint nounwind uwtable
define internal void @pg_atomic_init_u32(ptr noundef %0, i32 noundef %1) #3 {
  %3 = alloca ptr, align 8
  %4 = alloca i32, align 4
  store ptr %0, ptr %3, align 8
  store i32 %1, ptr %4, align 4
  %5 = load ptr, ptr %3, align 8
  %6 = load i32, ptr %4, align 4
  call void @pg_atomic_init_u32_impl(ptr noundef %5, i32 noundef %6)
  ret void
}

; Function Attrs: inlinehint nounwind uwtable
define internal void @pg_atomic_init_u64(ptr noundef %0, i64 noundef %1) #3 {
  %3 = alloca ptr, align 8
  %4 = alloca i64, align 8
  store ptr %0, ptr %3, align 8
  store i64 %1, ptr %4, align 8
  %5 = load ptr, ptr %3, align 8
  %6 = load i64, ptr %4, align 8
  call void @pg_atomic_init_u64_impl(ptr noundef %5, i64 noundef %6)
  ret void
}

; Function Attrs: nounwind uwtable
define dso_local i64 @ProcSignalShmemSize() #0 {
  %1 = alloca i64, align 8
  call void @llvm.lifetime.start.p0(i64 8, ptr %1) #11
  %2 = load i32, ptr @MaxBackends, align 4
  %3 = add i32 %2, 6
  %4 = sext i32 %3 to i64
  %5 = call i64 @mul_size(i64 noundef %4, i64 noundef 96)
  store i64 %5, ptr %1, align 8
  %6 = load i64, ptr %1, align 8
  %7 = call i64 @add_size(i64 noundef %6, i64 noundef 8)
  store i64 %7, ptr %1, align 8
  %8 = load i64, ptr %1, align 8
  call void @llvm.lifetime.end.p0(i64 8, ptr %1) #11
  ret i64 %8
}

; Function Attrs: nounwind uwtable
define dso_local void @ProcSignalShmemInit() #0 {
  %1 = alloca i64, align 8
  %2 = alloca i8, align 1
  %3 = alloca i32, align 4
  %4 = alloca ptr, align 8
  %5 = alloca ptr, align 8
  %6 = alloca i32, align 4
  %7 = alloca i64, align 8
  %8 = alloca ptr, align 8
  %9 = alloca ptr, align 8
  call void @llvm.lifetime.start.p0(i64 8, ptr %1) #11
  %10 = call i64 @ProcSignalShmemSize()
  store i64 %10, ptr %1, align 8
  call void @llvm.lifetime.start.p0(i64 1, ptr %2) #11
  %11 = load i64, ptr %1, align 8
  %12 = call ptr @ShmemInitStruct(ptr noundef @.str, i64 noundef %11, ptr noundef %2)
  store ptr %12, ptr @ProcSignal, align 8
  %13 = load i8, ptr %2, align 1, !range !4, !noundef !5
  %14 = trunc i8 %13 to i1
  br i1 %14, label %89, label %15

15:                                               ; preds = %0
  call void @llvm.lifetime.start.p0(i64 4, ptr %3) #11
  %16 = load ptr, ptr @ProcSignal, align 8
  %17 = getelementptr inbounds nuw %struct.ProcSignalHeader, ptr %16, i32 0, i32 0
  call void @pg_atomic_init_u64(ptr noundef %17, i64 noundef 0)
  store i32 0, ptr %3, align 4
  br label %18

18:                                               ; preds = %85, %15
  %19 = load i32, ptr %3, align 4
  %20 = load i32, ptr @MaxBackends, align 4
  %21 = add i32 %20, 6
  %22 = icmp slt i32 %19, %21
  br i1 %22, label %23, label %88

23:                                               ; preds = %18
  call void @llvm.lifetime.start.p0(i64 8, ptr %4) #11
  %24 = load ptr, ptr @ProcSignal, align 8
  %25 = getelementptr inbounds nuw %struct.ProcSignalHeader, ptr %24, i32 0, i32 1
  %26 = load i32, ptr %3, align 4
  %27 = sext i32 %26 to i64
  %28 = getelementptr inbounds [0 x %struct.ProcSignalSlot], ptr %25, i64 0, i64 %27
  store ptr %28, ptr %4, align 8
  br label %29

29:                                               ; preds = %23
  call void asm sideeffect "", "~{memory},~{dirflag},~{fpsr},~{flags}"() #11, !srcloc !6
  %30 = load ptr, ptr %4, align 8
  %31 = getelementptr inbounds nuw %struct.ProcSignalSlot, ptr %30, i32 0, i32 4
  store i8 0, ptr %31, align 4
  br label %32

32:                                               ; preds = %29
  br label %33

33:                                               ; preds = %32
  %34 = load ptr, ptr %4, align 8
  %35 = getelementptr inbounds nuw %struct.ProcSignalSlot, ptr %34, i32 0, i32 0
  call void @pg_atomic_init_u32(ptr noundef %35, i32 noundef 0)
  %36 = load ptr, ptr %4, align 8
  %37 = getelementptr inbounds nuw %struct.ProcSignalSlot, ptr %36, i32 0, i32 1
  store i8 0, ptr %37, align 4
  %38 = load ptr, ptr %4, align 8
  %39 = getelementptr inbounds nuw %struct.ProcSignalSlot, ptr %38, i32 0, i32 2
  store i32 0, ptr %39, align 8
  br label %40

40:                                               ; preds = %33
  call void @llvm.lifetime.start.p0(i64 8, ptr %5) #11
  %41 = load ptr, ptr %4, align 8
  %42 = getelementptr inbounds nuw %struct.ProcSignalSlot, ptr %41, i32 0, i32 3
  %43 = getelementptr inbounds [14 x i32], ptr %42, i64 0, i64 0
  store ptr %43, ptr %5, align 8
  call void @llvm.lifetime.start.p0(i64 4, ptr %6) #11
  store i32 0, ptr %6, align 4
  call void @llvm.lifetime.start.p0(i64 8, ptr %7) #11
  store i64 56, ptr %7, align 8
  %44 = load ptr, ptr %5, align 8
  %45 = ptrtoint ptr %44 to i64
  %46 = and i64 %45, 7
  %47 = icmp eq i64 %46, 0
  br i1 %47, label %48, label %71

48:                                               ; preds = %40
  %49 = load i64, ptr %7, align 8
  %50 = and i64 %49, 7
  %51 = icmp eq i64 %50, 0
  br i1 %51, label %52, label %71

52:                                               ; preds = %48
  %53 = load i32, ptr %6, align 4
  %54 = icmp eq i32 %53, 0
  br i1 %54, label %55, label %71

55:                                               ; preds = %52
  %56 = load i64, ptr %7, align 8
  %57 = icmp ule i64 %56, 1024
  br i1 %57, label %58, label %71

58:                                               ; preds = %55
  call void @llvm.lifetime.start.p0(i64 8, ptr %8) #11
  %59 = load ptr, ptr %5, align 8
  store ptr %59, ptr %8, align 8
  call void @llvm.lifetime.start.p0(i64 8, ptr %9) #11
  %60 = load ptr, ptr %8, align 8
  %61 = load i64, ptr %7, align 8
  %62 = getelementptr inbounds nuw i8, ptr %60, i64 %61
  store ptr %62, ptr %9, align 8
  br label %63

63:                                               ; preds = %67, %58
  %64 = load ptr, ptr %8, align 8
  %65 = load ptr, ptr %9, align 8
  %66 = icmp ult ptr %64, %65
  br i1 %66, label %67, label %70

67:                                               ; preds = %63
  %68 = load ptr, ptr %8, align 8
  %69 = getelementptr inbounds nuw i64, ptr %68, i32 1
  store ptr %69, ptr %8, align 8
  store i64 0, ptr %68, align 8
  br label %63, !llvm.loop !7

70:                                               ; preds = %63
  call void @llvm.lifetime.end.p0(i64 8, ptr %9) #11
  call void @llvm.lifetime.end.p0(i64 8, ptr %8) #11
  br label %76

71:                                               ; preds = %55, %52, %48, %40
  %72 = load ptr, ptr %5, align 8
  %73 = load i32, ptr %6, align 4
  %74 = trunc i32 %73 to i8
  %75 = load i64, ptr %7, align 8
  call void @llvm.memset.p0.i64(ptr align 1 %72, i8 %74, i64 %75, i1 false)
  br label %76

76:                                               ; preds = %71, %70
  call void @llvm.lifetime.end.p0(i64 8, ptr %7) #11
  call void @llvm.lifetime.end.p0(i64 4, ptr %6) #11
  call void @llvm.lifetime.end.p0(i64 8, ptr %5) #11
  br label %77

77:                                               ; preds = %76
  br label %78

78:                                               ; preds = %77
  %79 = load ptr, ptr %4, align 8
  %80 = getelementptr inbounds nuw %struct.ProcSignalSlot, ptr %79, i32 0, i32 5
  call void @pg_atomic_init_u64(ptr noundef %80, i64 noundef -1)
  %81 = load ptr, ptr %4, align 8
  %82 = getelementptr inbounds nuw %struct.ProcSignalSlot, ptr %81, i32 0, i32 6
  call void @pg_atomic_init_u32(ptr noundef %82, i32 noundef 0)
  %83 = load ptr, ptr %4, align 8
  %84 = getelementptr inbounds nuw %struct.ProcSignalSlot, ptr %83, i32 0, i32 7
  call void @ConditionVariableInit(ptr noundef %84)
  call void @llvm.lifetime.end.p0(i64 8, ptr %4) #11
  br label %85

85:                                               ; preds = %78
  %86 = load i32, ptr %3, align 4
  %87 = add i32 %86, 1
  store i32 %87, ptr %3, align 4
  br label %18, !llvm.loop !9

88:                                               ; preds = %18
  call void @llvm.lifetime.end.p0(i64 4, ptr %3) #11
  br label %89

89:                                               ; preds = %88, %0
  call void @llvm.lifetime.end.p0(i64 1, ptr %2) #11
  call void @llvm.lifetime.end.p0(i64 8, ptr %1) #11
  ret void
}