; Function Attrs: nounwind uwtable
define dso_local void @ProcSignalShmemInit() local_unnamed_addr #0 {
  %1 = alloca i8, align 1
  %2 = load i32, ptr @MaxBackends, align 4
  %3 = add i32 %2, 6
  %4 = sext i32 %3 to i64
  %5 = tail call i64 @mul_size(i64 noundef %4, i64 noundef 96) #11
  %6 = tail call i64 @add_size(i64 noundef %5, i64 noundef 8) #11
  call void @llvm.lifetime.start.p0(i64 1, ptr nonnull %1) #11
  %7 = call ptr @ShmemInitStruct(ptr noundef nonnull @.str, i64 noundef %6, ptr noundef nonnull %1) #11
  store ptr %7, ptr @ProcSignal, align 8
  %8 = load i8, ptr %1, align 1, !range !4, !noundef !5
  %9 = trunc nuw i8 %8 to i1
  br i1 %9, label %.loopexit29, label %10

10:                                               ; preds = %0
  store volatile i64 0, ptr %7, align 8
  %11 = load i32, ptr @MaxBackends, align 4
  %12 = add i32 %11, 6
  %13 = icmp sgt i32 %12, 0
  br i1 %13, label %.lr.ph, label %.loopexit29

.lr.ph:                                           ; preds = %10, %.lr.ph
  %indvar = phi i64 [ %indvar.next, %.lr.ph ], [ 0, %10 ]
  %14 = load ptr, ptr @ProcSignal, align 8
  %15 = getelementptr inbounds nuw i8, ptr %14, i64 8
  %16 = getelementptr inbounds nuw [0 x %struct.ProcSignalSlot], ptr %15, i64 0, i64 %indvar
  call void asm sideeffect "", "~{memory},~{dirflag},~{fpsr},~{flags}"() #11, !srcloc !6
  %17 = getelementptr inbounds nuw i8, ptr %16, i64 68
  store i8 0, ptr %17, align 4
  store volatile i32 0, ptr %16, align 4
  %18 = getelementptr inbounds nuw i8, ptr %16, i64 4
  store i8 0, ptr %18, align 4
  %19 = getelementptr inbounds nuw i8, ptr %16, i64 8
  store i32 0, ptr %19, align 8
  %.ptr28 = getelementptr inbounds nuw i8, ptr %16, i64 12
  %20 = ptrtoint ptr %.ptr28 to i64
  %21 = and i64 %20, 7
  %22 = icmp eq i64 %21, 0
  %23 = mul nuw nsw i64 %indvar, 96
  %24 = or disjoint i64 %23, 20
  %scevgep = getelementptr i8, ptr %14, i64 %24
  %scevgep.sink = select i1 %22, ptr %scevgep, ptr %.ptr28
  call void @llvm.memset.p0.i64(ptr noundef nonnull align 1 dereferenceable(56) %scevgep.sink, i8 0, i64 56, i1 false)
  %25 = getelementptr inbounds nuw i8, ptr %16, i64 72
  store volatile i64 -1, ptr %25, align 8
  %26 = getelementptr inbounds nuw i8, ptr %16, i64 80
  store volatile i32 0, ptr %26, align 4
  %27 = getelementptr inbounds nuw i8, ptr %16, i64 84
  call void @ConditionVariableInit(ptr noundef nonnull %27) #11
  %indvar.next = add nuw nsw i64 %indvar, 1
  %28 = load i32, ptr @MaxBackends, align 4
  %29 = add i32 %28, 6
  %30 = sext i32 %29 to i64
  %31 = icmp slt i64 %indvar.next, %30
  br i1 %31, label %.lr.ph, label %.loopexit29, !llvm.loop !7

.loopexit29:                                      ; preds = %.lr.ph, %10, %0
  call void @llvm.lifetime.end.p0(i64 1, ptr nonnull %1) #11
  ret void
}